target datalayout = "e-m:e-p270:32:32-p271:32:32-p272:64:64-i64:64-i128:128-f80:128-n8:16:32:64-S128"
target triple = "x86_64-pc-linux-gnu"

; Function Attrs: mustprogress nounwind uwtable
define noundef signext i8 @_ZN6icu_7714HebrewCalendar10isLeapYearEi(i32 noundef %0) #3 align 2 {
  %2 = alloca i32, align 4
  %3 = alloca i64, align 8
  store i32 %0, ptr %2, align 4, !tbaa !15
  call void @llvm.lifetime.start.p0(i64 8, ptr %3) #11
  %4 = load i32, ptr %2, align 4, !tbaa !15
  %5 = sext i32 %4 to i64
  %6 = mul nsw i64 %5, 12
  %7 = add nsw i64 %6, 17
  %8 = srem i64 %7, 19
  store i64 %8, ptr %3, align 8, !tbaa !19
  %9 = load i64, ptr %3, align 8, !tbaa !19
  %10 = load i64, ptr %3, align 8, !tbaa !19
  %11 = icmp slt i64 %10, 0
  %12 = select i1 %11, i32 -7, i32 12
  %13 = sext i32 %12 to i64
  %14 = icmp sge i64 %9, %13
  %15 = zext i1 %14 to i8
  call void @llvm.lifetime.end.p0(i64 8, ptr %3) #11
  ret i8 %15
}

; Function Attrs: inlinehint mustprogress nounwind uwtable
define internal noundef signext i8 @_ZL9U_FAILURE10UErrorCode(i32 noundef %0) #4 {
  %2 = alloca i32, align 4
  store i32 %0, ptr %2, align 4, !tbaa !17
  %3 = load i32, ptr %2, align 4, !tbaa !17
  %4 = icmp sgt i32 %3, 0
  %5 = zext i1 %4 to i8
  ret i8 %5
}

; Function Attrs: mustprogress uwtable
define noundef zeroext i1 @_ZNK6icu_7714HebrewCalendar18inTemporalLeapYearER10UErrorCode(ptr noundef nonnull align 8 dereferenceable(192) %0, ptr noundef nonnull align 4 dereferenceable(4) %1) unnamed_addr #0 align 2 {
  %3 = alloca i1, align 1
  %4 = alloca ptr, align 8
  %5 = alloca ptr, align 8
  %6 = alloca i32, align 4
  %7 = alloca i32, align 4
  store ptr %0, ptr %4, align 8, !tbaa !3
  store ptr %1, ptr %5, align 8, !tbaa !10
  %8 = load ptr, ptr %4, align 8
  %9 = load ptr, ptr %5, align 8, !tbaa !10
  %10 = load i32, ptr %9, align 4, !tbaa !17
  %11 = call noundef signext i8 @_ZL9U_FAILURE10UErrorCode(i32 noundef %10)
  %12 = icmp ne i8 %11, 0
  br i1 %12, label %13, label %14

13:                                               ; preds = %2
  store i1 false, ptr %3, align 1
  br label %27

14:                                               ; preds = %2
  call void @llvm.lifetime.start.p0(i64 4, ptr %6) #11
  %15 = load ptr, ptr %5, align 8, !tbaa !10
  %16 = call noundef i32 @_ZNK6icu_778Calendar3getE19UCalendarDateFieldsR10UErrorCode(ptr noundef nonnull align 8 dereferenceable(192) %8, i32 noundef 19, ptr noundef nonnull align 4 dereferenceable(4) %15)
  store i32 %16, ptr %6, align 4, !tbaa !15
  %17 = load ptr, ptr %5, align 8, !tbaa !10
  %18 = load i32, ptr %17, align 4, !tbaa !17
  %19 = call noundef signext i8 @_ZL9U_FAILURE10UErrorCode(i32 noundef %18)
  %20 = icmp ne i8 %19, 0
  br i1 %20, label %21, label %22

21:                                               ; preds = %14
  store i1 false, ptr %3, align 1
  store i32 1, ptr %7, align 4
  br label %26

22:                                               ; preds = %14
  %23 = load i32, ptr %6, align 4, !tbaa !15
  %24 = call noundef signext i8 @_ZN6icu_7714HebrewCalendar10isLeapYearEi(i32 noundef %23)
  %25 = icmp ne i8 %24, 0
  store i1 %25, ptr %3, align 1
  store i32 1, ptr %7, align 4
  br label %26

26:                                               ; preds = %22, %21
  call void @llvm.lifetime.end.p0(i64 4, ptr %6) #11
  br label %27

27:                                               ; preds = %26, %13
  %28 = load i1, ptr %3, align 1
  ret i1 %28
}