; Function Attrs: mustprogress uwtable
define noundef zeroext i1 @_ZNK6icu_7714HebrewCalendar18inTemporalLeapYearER10UErrorCode(ptr noundef nonnull align 8 dereferenceable(192) %0, ptr noundef nonnull align 4 dereferenceable(4) %1) unnamed_addr #0 align 2 {
  %3 = load i32, ptr %1, align 4, !tbaa !6
  %4 = icmp slt i32 %3, 1
  br i1 %4, label %5, label %17

5:                                                ; preds = %2
  %6 = tail call noundef i32 @_ZNK6icu_778Calendar3getE19UCalendarDateFieldsR10UErrorCode(ptr noundef nonnull align 8 dereferenceable(192) %0, i32 noundef 19, ptr noundef nonnull align 4 dereferenceable(4) %1)
  %7 = load i32, ptr %1, align 4, !tbaa !6
  %8 = icmp slt i32 %7, 1
  br i1 %8, label %9, label %17

9:                                                ; preds = %5
  %10 = sext i32 %6 to i64
  %11 = mul nsw i64 %10, 12
  %12 = add nsw i64 %11, 17
  %13 = srem i64 %12, 19
  %14 = icmp slt i64 %13, 0
  %15 = select i1 %14, i64 -7, i64 12
  %16 = icmp sge i64 %13, %15
  br label %17

17:                                               ; preds = %9, %5, %2
  %.0 = phi i1 [ false, %2 ], [ %16, %9 ], [ false, %5 ]
  ret i1 %.0
}